target datalayout = "e-m:e-p270:32:32-p271:32:32-p272:64:64-i64:64-i128:128-f80:128-n8:16:32:64-S128"
target triple = "x86_64-pc-linux-gnu"

%struct.H5O_shared_t = type { i32, ptr, i32, %union.anon }
%union.anon = type { %struct.H5O_mesg_loc_t }
%struct.H5O_mesg_loc_t = type { i32, i64 }

@.str.1 = private unnamed_addr constant [103 x i8] c"generated/home/dtcxzyw/WorkSpace/Projects/compilers/llvm-opt-benchmark/bench/hdf5/hdf5/src/H5Oshared.h\00", align 1
@H5E_OHDR_g = external global i64, align 8
@H5E_WRITEERROR_g = external global i64, align 8
@__func__.H5O__dtype_shared_debug = private unnamed_addr constant [24 x i8] c"H5O__dtype_shared_debug\00", align 1
@.str.79 = private unnamed_addr constant [38 x i8] c"unable to display shared message info\00", align 1
@.str.80 = private unnamed_addr constant [38 x i8] c"unable to display native message info\00", align 1

; Function Attrs: nounwind uwtable
define internal i32 @H5O__dtype_shared_debug(ptr noundef %0, ptr noundef %1, ptr noundef %2, i32 noundef %3, i32 noundef %4) #0 {
  %6 = alloca ptr, align 8
  %7 = alloca ptr, align 8
  %8 = alloca ptr, align 8
  %9 = alloca i32, align 4
  %10 = alloca i32, align 4
  %11 = alloca ptr, align 8
  %12 = alloca i32, align 4
  %13 = alloca i8, align 1
  store ptr %0, ptr %6, align 8
  store ptr %1, ptr %7, align 8
  store ptr %2, ptr %8, align 8
  store i32 %3, ptr %9, align 4
  store i32 %4, ptr %10, align 4
  %14 = load ptr, ptr %7, align 8
  store ptr %14, ptr %11, align 8
  store i32 0, ptr %12, align 4
  store i8 0, ptr %13, align 1
  %15 = load ptr, ptr %11, align 8
  %16 = getelementptr inbounds %struct.H5O_shared_t, ptr %15, i32 0, i32 0
  %17 = load i32, ptr %16, align 8
  %18 = icmp eq i32 %17, 1
  br i1 %18, label %24, label %19

19:                                               ; preds = %5
  %20 = load ptr, ptr %11, align 8
  %21 = getelementptr inbounds %struct.H5O_shared_t, ptr %20, i32 0, i32 0
  %22 = load i32, ptr %21, align 8
  %23 = icmp eq i32 %22, 2
  br i1 %23, label %24, label %25

24:                                               ; preds = %19, %5
  br i1 true, label %26, label %49

25:                                               ; preds = %19
  br i1 false, label %26, label %49

26:                                               ; preds = %25, %24
  %27 = load ptr, ptr %11, align 8
  %28 = load ptr, ptr %8, align 8
  %29 = load i32, ptr %9, align 4
  %30 = load i32, ptr %10, align 4
  %31 = call i32 @H5O__shared_debug(ptr noundef %27, ptr noundef %28, i32 noundef %29, i32 noundef %30)
  %32 = icmp slt i32 %31, 0
  br i1 %32, label %33, label %48

33:                                               ; preds = %26
  br label %34

34:                                               ; preds = %33
  br label %35

35:                                               ; preds = %34
  br label %36

36:                                               ; preds = %35
  %37 = load i64, ptr @H5E_OHDR_g, align 8
  %38 = load i64, ptr @H5E_WRITEERROR_g, align 8
  %39 = call i32 (ptr, ptr, i32, i64, i64, ptr, ...) @H5E_printf_stack(ptr noundef @.str.1, ptr noundef @__func__.H5O__dtype_shared_debug, i32 noundef 428, i64 noundef %37, i64 noundef %38, ptr noundef @.str.79)
  br label %40

40:                                               ; preds = %36
  store i8 1, ptr %13, align 1
  %41 = load i8, ptr %13, align 1
  %42 = trunc i8 %41 to i1
  %43 = zext i1 %42 to i8
  store i8 %43, ptr %13, align 1
  br label %44

44:                                               ; preds = %40
  br label %45

45:                                               ; preds = %44
  store i32 -1, ptr %12, align 4
  br label %73

46:                                               ; No predecessors!
  br label %47

47:                                               ; preds = %46
  br label %48

48:                                               ; preds = %47, %26
  br label %49

49:                                               ; preds = %48, %25, %24
  %50 = load ptr, ptr %6, align 8
  %51 = load ptr, ptr %7, align 8
  %52 = load ptr, ptr %8, align 8
  %53 = load i32, ptr %9, align 4
  %54 = load i32, ptr %10, align 4
  %55 = call i32 @H5O__dtype_debug(ptr noundef %50, ptr noundef %51, ptr noundef %52, i32 noundef %53, i32 noundef %54)
  %56 = icmp slt i32 %55, 0
  br i1 %56, label %57, label %72

57:                                               ; preds = %49
  br label %58

58:                                               ; preds = %57
  br label %59

59:                                               ; preds = %58
  br label %60

60:                                               ; preds = %59
  %61 = load i64, ptr @H5E_OHDR_g, align 8
  %62 = load i64, ptr @H5E_WRITEERROR_g, align 8
  %63 = call i32 (ptr, ptr, i32, i64, i64, ptr, ...) @H5E_printf_stack(ptr noundef @.str.1, ptr noundef @__func__.H5O__dtype_shared_debug, i32 noundef 433, i64 noundef %61, i64 noundef %62, ptr noundef @.str.80)
  br label %64

64:                                               ; preds = %60
  store i8 1, ptr %13, align 1
  %65 = load i8, ptr %13, align 1
  %66 = trunc i8 %65 to i1
  %67 = zext i1 %66 to i8
  store i8 %67, ptr %13, align 1
  br label %68

68:                                               ; preds = %64
  br label %69

69:                                               ; preds = %68
  store i32 -1, ptr %12, align 4
  br label %73

70:                                               ; No predecessors!
  br label %71

71:                                               ; preds = %70
  br label %72

72:                                               ; preds = %71, %49
  br label %73

73:                                               ; preds = %72, %69, %45
  %74 = load i32, ptr %12, align 4
  ret i32 %74
}